csympy.matrices.immutable
ImmutableMatrix
p0
(csympy.core.numbers
Integer
p1
(I4
tp2
Rp3
(dp4
bg3
csympy.core.containers
Tuple
p5
(csympy.core.add
Add
p6
(csympy.core.mul
Mul
p7
(csympy.core.numbers
NegativeOne
p8
(I-1
tp9
Rp10
(dp11
bg6
(g7
(csympy.functions.elementary.trigonometric
sin
p12
(csympy.core.symbol
Symbol
p13
(S'q1'
p14
tp15
Rp16
(dp17
S'_assumptions'
p18
ccopy_reg
_reconstructor
p19
(csympy.core.assumptions
StdFactKB
p20
c__builtin__
dict
p21
(dp22
S'real'
p23
NsS'irrational'
p24
NsS'antihermitian'
p25
NsS'nonpositive'
p26
NsS'algebraic'
p27
NsS'zero'
p28
NsS'infinite'
p29
NsS'integer'
p30
NsS'hermitian'
p31
NsS'odd'
p32
NsS'imaginary'
p33
NsS'even'
p34
NsS'commutative'
p35
I01
sS'positive'
p36
NsS'negative'
p37
NsS'nonnegative'
p38
NsS'complex'
p39
NsS'rational'
p40
NsS'finite'
p41
Nstp42
Rp43
(dp44
S'_generator'
p45
(dp46
sbsbtp47
Rp48
(dp49
bg12
(g13
(S'q4'
p50
tp51
Rp52
(dp53
g18
g19
(g20
g21
(dp54
g23
Nsg24
Nsg25
Nsg26
Nsg27
Nsg31
Nsg29
Nsg30
Nsg33
Nsg32
Nsg34
Nsg35
I01
sg28
Nsg36
Nsg37
Nsg38
Nsg39
Nsg40
Nsg41
Nstp55
Rp56
(dp57
g45
(dp58
sbsbtp59
Rp60
(dp61
btp62
Rp63
(dp64
bg7
(csympy.functions.elementary.trigonometric
cos
p65
(g16
tp66
Rp67
(dp68
bg65
(g52
tp69
Rp70
(dp71
bg12
(g6
(g13
(S'q2'
p72
tp73
Rp74
(dp75
g18
g19
(g20
g21
(dp76
g23
Nsg24
Nsg25
Nsg26
Nsg27
Nsg31
Nsg29
Nsg30
Nsg33
Nsg32
Nsg34
Nsg35
I01
sg28
Nsg36
Nsg37
Nsg38
Nsg39
Nsg40
Nsg41
Nstp77
Rp78
(dp79
g45
(dp80
sbsbg13
(S'q3'
p81
tp82
Rp83
(dp84
g18
g19
(g20
g21
(dp85
g23
Nsg24
Nsg25
Nsg26
Nsg27
Nsg28
Nsg29
Nsg30
Nsg31
Nsg32
Nsg33
Nsg34
Nsg35
I01
sg36
Nsg37
Nsg38
Nsg39
Nsg40
Nsg41
Nstp86
Rp87
(dp88
g45
(dp89
sbsbtp90
Rp91
(dp92
btp93
Rp94
(dp95
btp96
Rp97
(dp98
btp99
Rp100
(dp101
bg12
(g13
(S'q5'
p102
tp103
Rp104
(dp105
g18
g19
(g20
g21
(dp106
g23
Nsg24
Nsg25
Nsg26
Nsg27
Nsg31
Nsg29
Nsg30
Nsg33
Nsg32
Nsg34
Nsg35
I01
sg28
Nsg36
Nsg37
Nsg38
Nsg39
Nsg40
Nsg41
Nstp107
Rp108
(dp109
g45
(dp110
sbsbtp111
Rp112
(dp113
btp114
Rp115
(dp116
bg7
(g67
g65
(g104
tp117
Rp118
(dp119
bg65
(g91
tp120
Rp121
(dp122
btp123
Rp124
(dp125
btp126
Rp127
(dp128
bg6
(g7
(g6
(g7
(g6
(g7
(g48
g60
tp129
Rp130
(dp131
bg7
(g67
g70
g94
tp132
Rp133
(dp134
btp135
Rp136
(dp137
bg118
tp138
Rp139
(dp140
bg7
(g67
g121
g112
tp141
Rp142
(dp143
btp144
Rp145
(dp146
bg12
(g13
(S'q6'
p147
tp148
Rp149
(dp150
g18
g19
(g20
g21
(dp151
g23
Nsg24
Nsg25
Nsg26
Nsg27
Nsg31
Nsg29
Nsg30
Nsg33
Nsg32
Nsg34
Nsg35
I01
sg28
Nsg36
Nsg37
Nsg38
Nsg39
Nsg40
Nsg41
Nstp152
Rp153
(dp154
g45
(dp155
sbsbtp156
Rp157
(dp158
btp159
Rp160
(dp161
bg7
(g10
g6
(g7
(g70
g48
tp162
Rp163
(dp164
bg7
(g10
g67
g60
g94
tp165
Rp166
(dp167
btp168
Rp169
(dp170
bg65
(g149
tp171
Rp172
(dp173
btp174
Rp175
(dp176
btp177
Rp178
(dp179
bg6
(g7
(g6
(g7
(g136
g118
tp180
Rp181
(dp182
bg7
(g67
g121
g112
tp183
Rp184
(dp185
btp186
Rp187
(dp188
bg172
tp189
Rp190
(dp191
bg7
(g6
(g7
(g70
g48
tp192
Rp193
(dp194
bg7
(g10
g67
g60
g94
tp195
Rp196
(dp197
btp198
Rp199
(dp200
bg157
tp201
Rp202
(dp203
btp204
Rp205
(dp206
bg6
(g7
(csympy.core.numbers
Float
p207
((I0
S'b333333333333L'
p208
I-53
I52
tp209
tp210
Rp211
(dp212
S'_prec'
p213
I53
sbg67
tp214
Rp215
(dp216
bg7
(g207
((I0
S'3L'
p217
I-1
I2
tp218
tp219
Rp220
(dp221
g213
I53
sbg67
g121
tp222
Rp223
(dp224
bg7
(g207
((I0
S'5L'
p225
I-2
I3
tp226
tp227
Rp228
(dp229
g213
I53
sbg67
g12
(g74
tp230
Rp231
(dp232
btp233
Rp234
(dp235
bg7
(g207
((I1
S'1ba5e353f7ced9L'
p236
I-57
I53
tp237
tp238
Rp239
(dp240
g213
I53
sbg67
g94
tp241
Rp242
(dp243
bg7
(g207
((I0
S'13645a1cac0831L'
p244
I-54
I53
tp245
tp246
Rp247
(dp248
g213
I53
sbg67
g118
g121
tp249
Rp250
(dp251
bg7
(g207
((I1
S'13645a1cac0831L'
p252
I-54
I53
tp253
tp254
Rp255
(dp256
g213
I53
sbg48
g60
g112
tp257
Rp258
(dp259
bg7
(g207
((I1
S'13645a1cac0831L'
p260
I-54
I53
tp261
tp262
Rp263
(dp264
g213
I53
sbg67
g70
g112
g94
tp265
Rp266
(dp267
btp268
Rp269
(dp270
bg6
(g7
(g10
g6
(g7
(g10
g67
g60
tp271
Rp272
(dp273
bg7
(g70
g48
g94
tp274
Rp275
(dp276
btp277
Rp278
(dp279
bg112
tp280
Rp281
(dp282
bg7
(g118
g121
g48
tp283
Rp284
(dp285
btp286
Rp287
(dp288
bg6
(g7
(g6
(g7
(g6
(g7
(g10
g67
g60
tp289
Rp290
(dp291
bg7
(g70
g48
g94
tp292
Rp293
(dp294
btp295
Rp296
(dp297
bg118
tp298
Rp299
(dp300
bg7
(g121
g48
g112
tp301
Rp302
(dp303
btp304
Rp305
(dp306
bg157
tp307
Rp308
(dp309
bg7
(g6
(g7
(g67
g70
tp310
Rp311
(dp312
bg7
(g48
g60
g94
tp313
Rp314
(dp315
btp316
Rp317
(dp318
bg172
tp319
Rp320
(dp321
btp322
Rp323
(dp324
bg6
(g7
(g6
(g7
(g6
(g7
(g10
g67
g60
tp325
Rp326
(dp327
bg7
(g70
g48
g94
tp328
Rp329
(dp330
btp331
Rp332
(dp333
bg118
tp334
Rp335
(dp336
bg7
(g121
g48
g112
tp337
Rp338
(dp339
btp340
Rp341
(dp342
bg172
tp343
Rp344
(dp345
bg7
(g10
g317
g157
tp346
Rp347
(dp348
btp349
Rp350
(dp351
bg6
(g7
(g207
((I0
S'b333333333333L'
p352
I-53
I52
tp353
tp354
Rp355
(dp356
g213
I53
sbg48
tp357
Rp358
(dp359
bg7
(g207
((I0
S'3L'
p360
I-1
I2
tp361
tp362
Rp363
(dp364
g213
I53
sbg121
g48
tp365
Rp366
(dp367
bg7
(g207
((I0
S'5L'
p368
I-2
I3
tp369
tp370
Rp371
(dp372
g213
I53
sbg48
g231
tp373
Rp374
(dp375
bg7
(g207
((I1
S'1ba5e353f7ced9L'
p376
I-57
I53
tp377
tp378
Rp379
(dp380
g213
I53
sbg48
g94
tp381
Rp382
(dp383
bg7
(g207
((I0
S'13645a1cac0831L'
p384
I-54
I53
tp385
tp386
Rp387
(dp388
g213
I53
sbg67
g60
g112
tp389
Rp390
(dp391
bg7
(g207
((I0
S'13645a1cac0831L'
p392
I-54
I53
tp393
tp394
Rp395
(dp396
g213
I53
sbg118
g121
g48
tp397
Rp398
(dp399
bg7
(g207
((I1
S'13645a1cac0831L'
p400
I-54
I53
tp401
tp402
Rp403
(dp404
g213
I53
sbg70
g48
g112
g94
tp405
Rp406
(dp407
btp408
Rp409
(dp410
bg6
(g7
(g10
g118
g94
tp411
Rp412
(dp413
bg7
(g10
g70
g121
g112
tp414
Rp415
(dp416
btp417
Rp418
(dp419
bg6
(g7
(g10
g6
(g7
(g112
g94
tp420
Rp421
(dp422
bg7
(g10
g70
g118
g121
tp423
Rp424
(dp425
btp426
Rp427
(dp428
bg157
tp429
Rp430
(dp431
bg7
(g172
g121
g60
tp432
Rp433
(dp434
btp435
Rp436
(dp437
bg6
(g7
(g10
g427
g172
tp438
Rp439
(dp440
bg7
(g10
g121
g60
g157
tp441
Rp442
(dp443
btp444
Rp445
(dp446
bg6
(g207
((I0
S'3L'
p447
I-2
I2
tp448
tp449
Rp450
(dp451
g213
I53
sbg7
(g207
((I0
S'5L'
p452
I-2
I3
tp453
tp454
Rp455
(dp456
g213
I53
sbg65
(g74
tp457
Rp458
(dp459
btp460
Rp461
(dp462
bg7
(g207
((I1
S'3L'
p463
I-1
I2
tp464
tp465
Rp466
(dp467
g213
I53
sbg94
tp468
Rp469
(dp470
bg7
(g207
((I1
S'1ba5e353f7ced9L'
p471
I-57
I53
tp472
tp473
Rp474
(dp475
g213
I53
sbg121
tp476
Rp477
(dp478
bg7
(g207
((I1
S'13645a1cac0831L'
p479
I-54
I53
tp480
tp481
Rp482
(dp483
g213
I53
sbg118
g94
tp484
Rp485
(dp486
bg7
(g207
((I1
S'13645a1cac0831L'
p487
I-54
I53
tp488
tp489
Rp490
(dp491
g213
I53
sbg70
g121
g112
tp492
Rp493
(dp494
btp495
Rp496
(dp497
bcsympy.core.numbers
Zero
p498
(I0
tp499
Rp500
(dp501
bg500
g500
csympy.core.numbers
One
p502
(I1
tp503
Rp504
(dp505
btp506
Rp507
(dp508
btp509
Rp510
(dp511
b.